; ModuleID = 'source-C-CXX/2/1194.c'
source_filename = "source-C-CXX/2/1194.c"
target datalayout = "e-m:e-p270:32:32-p271:32:32-p272:64:64-i64:64-f80:128-n8:16:32:64-S128"
target triple = "x86_64-pc-linux-gnu"

@.str = private unnamed_addr constant [6 x i8] c"%d %d\00", align 1
@.str.1 = private unnamed_addr constant [3 x i8] c"%d\00", align 1
@.str.2 = private unnamed_addr constant [4 x i8] c"yes\00", align 1
@.str.3 = private unnamed_addr constant [3 x i8] c"no\00", align 1

; Function Attrs: nofree nounwind sspstrong uwtable
define dso_local i32 @main() local_unnamed_addr #0 {
  %1 = alloca i32, align 4
  %2 = alloca i32, align 4
  %3 = alloca [1000 x i32], align 16
  %4 = bitcast i32* %1 to i8*
  call void @llvm.lifetime.start.p0i8(i64 4, i8* nonnull %4) #3
  %5 = bitcast i32* %2 to i8*
  call void @llvm.lifetime.start.p0i8(i64 4, i8* nonnull %5) #3
  %6 = bitcast [1000 x i32]* %3 to i8*
  call void @llvm.lifetime.start.p0i8(i64 4000, i8* nonnull %6) #3
  %7 = call i32 (i8*, ...) @__isoc99_scanf(i8* getelementptr inbounds ([6 x i8], [6 x i8]* @.str, i64 0, i64 0), i32* nonnull %1, i32* nonnull %2)
  %8 = load i32, i32* %1, align 4, !tbaa !5
  %9 = icmp sgt i32 %8, 0
  br i1 %9, label %39, label %47

10:                                               ; preds = %39
  %11 = load i32, i32* %2, align 4
  %12 = icmp slt i32 %44, 2
  br i1 %12, label %47, label %13

13:                                               ; preds = %10
  %14 = zext i32 %44 to i64
  %15 = zext i32 %44 to i64
  br label %16

16:                                               ; preds = %13, %34
  %17 = phi i64 [ 0, %13 ], [ %36, %34 ]
  %18 = phi i32 [ undef, %13 ], [ %31, %34 ]
  %19 = getelementptr inbounds [1000 x i32], [1000 x i32]* %3, i64 0, i64 %17
  br label %20

20:                                               ; preds = %16, %30
  %21 = phi i64 [ 1, %16 ], [ %32, %30 ]
  %22 = phi i32 [ %18, %16 ], [ %31, %30 ]
  %23 = icmp ult i64 %17, %21
  br i1 %23, label %24, label %30

24:                                               ; preds = %20
  %25 = load i32, i32* %19, align 4, !tbaa !5
  %26 = getelementptr inbounds [1000 x i32], [1000 x i32]* %3, i64 0, i64 %21
  %27 = load i32, i32* %26, align 4, !tbaa !5
  %28 = add nsw i32 %27, %25
  %29 = icmp eq i32 %28, %11
  br i1 %29, label %47, label %30

30:                                               ; preds = %24, %20
  %31 = phi i32 [ %28, %24 ], [ %22, %20 ]
  %32 = add nuw nsw i64 %21, 1
  %33 = icmp eq i64 %32, %15
  br i1 %33, label %34, label %20, !llvm.loop !9

34:                                               ; preds = %30
  %35 = icmp ne i32 %31, %11
  %36 = add nuw nsw i64 %17, 1
  %37 = icmp ult i64 %36, %14
  %38 = select i1 %35, i1 %37, i1 false
  br i1 %38, label %16, label %47, !llvm.loop !11

39:                                               ; preds = %0, %39
  %40 = phi i64 [ %43, %39 ], [ 0, %0 ]
  %41 = getelementptr inbounds [1000 x i32], [1000 x i32]* %3, i64 0, i64 %40
  %42 = call i32 (i8*, ...) @__isoc99_scanf(i8* getelementptr inbounds ([3 x i8], [3 x i8]* @.str.1, i64 0, i64 0), i32* nonnull %41)
  %43 = add nuw nsw i64 %40, 1
  %44 = load i32, i32* %1, align 4, !tbaa !5
  %45 = sext i32 %44 to i64
  %46 = icmp slt i64 %43, %45
  br i1 %46, label %39, label %10, !llvm.loop !12

47:                                               ; preds = %34, %24, %10, %0
  %48 = phi i8* [ getelementptr inbounds ([3 x i8], [3 x i8]* @.str.3, i64 0, i64 0), %0 ], [ getelementptr inbounds ([3 x i8], [3 x i8]* @.str.3, i64 0, i64 0), %10 ], [ getelementptr inbounds ([4 x i8], [4 x i8]* @.str.2, i64 0, i64 0), %24 ], [ getelementptr inbounds ([3 x i8], [3 x i8]* @.str.3, i64 0, i64 0), %34 ]
  %49 = call i32 (i8*, ...) @printf(i8* nonnull dereferenceable(1) %48)
  call void @llvm.lifetime.end.p0i8(i64 4000, i8* nonnull %6) #3
  call void @llvm.lifetime.end.p0i8(i64 4, i8* nonnull %5) #3
  call void @llvm.lifetime.end.p0i8(i64 4, i8* nonnull %4) #3
  ret i32 0
}

; Function Attrs: argmemonly mustprogress nofree nosync nounwind willreturn
declare void @llvm.lifetime.start.p0i8(i64 immarg, i8* nocapture) #1

; Function Attrs: nofree nounwind
declare noundef i32 @__isoc99_scanf(i8* nocapture noundef readonly, ...) local_unnamed_addr #2

; Function Attrs: nofree nounwind
declare noundef i32 @printf(i8* nocapture noundef readonly, ...) local_unnamed_addr #2

; Function Attrs: argmemonly mustprogress nofree nosync nounwind willreturn
declare void @llvm.lifetime.end.p0i8(i64 immarg, i8* nocapture) #1


!llvm.module.flags = !{!0, !1, !2, !3}
!llvm.ident = !{!4}

!0 = !{i32 1, !"wchar_size", i32 4}
!1 = !{i32 7, !"PIC Level", i32 2}
!2 = !{i32 7, !"PIE Level", i32 2}
!3 = !{i32 7, !"uwtable", i32 1}
!4 = !{!"clang version 13.0.0"}
!5 = !{!6, !6, i64 0}
!6 = !{!"int", !7, i64 0}
!7 = !{!"omnipotent char", !8, i64 0}
!8 = !{!"Simple C/C++ TBAA"}
!9 = distinct !{!9, !10}
!10 = !{!"llvm.loop.mustprogress"}
!11 = distinct !{!11, !10}
!12 = distinct !{!12, !10}
